target datalayout = "e-m:e-p270:32:32-p271:32:32-p272:64:64-i64:64-i128:128-f80:128-n8:16:32:64-S128"
target triple = "x86_64-pc-linux-gnu"

@.str.258 = private unnamed_addr constant [27 x i8] c"O:restore_crossinterp_data\00", align 1

; Function Attrs: nounwind uwtable
define internal ptr @restore_crossinterp_data(ptr noundef %0, ptr noundef %1) #0 {
  %3 = alloca ptr, align 8
  %4 = alloca ptr, align 8
  %5 = alloca ptr, align 8
  %6 = alloca ptr, align 8
  %7 = alloca i32, align 4
  %8 = alloca ptr, align 8
  store ptr %0, ptr %4, align 8, !tbaa !3
  store ptr %1, ptr %5, align 8, !tbaa !3
  call void @llvm.lifetime.start.p0(i64 8, ptr %6) #10
  store ptr null, ptr %6, align 8, !tbaa !3
  %9 = load ptr, ptr %5, align 8, !tbaa !3
  %10 = call i32 (ptr, ptr, ...) @PyArg_ParseTuple(ptr noundef %9, ptr noundef @.str.258, ptr noundef %6)
  %11 = icmp ne i32 %10, 0
  br i1 %11, label %13, label %12

12:                                               ; preds = %2
  store ptr null, ptr %3, align 8
  store i32 1, ptr %7, align 4
  br label %23

13:                                               ; preds = %2
  call void @llvm.lifetime.start.p0(i64 8, ptr %8) #10
  %14 = load ptr, ptr %6, align 8, !tbaa !3
  %15 = call ptr @PyCapsule_GetPointer(ptr noundef %14, ptr noundef null)
  store ptr %15, ptr %8, align 8, !tbaa !242
  %16 = load ptr, ptr %8, align 8, !tbaa !242
  %17 = icmp eq ptr %16, null
  br i1 %17, label %18, label %19

18:                                               ; preds = %13
  store ptr null, ptr %3, align 8
  store i32 1, ptr %7, align 4
  br label %22

19:                                               ; preds = %13
  %20 = load ptr, ptr %8, align 8, !tbaa !242
  %21 = call ptr @_PyXIData_NewObject(ptr noundef %20)
  store ptr %21, ptr %3, align 8
  store i32 1, ptr %7, align 4
  br label %22

22:                                               ; preds = %19, %18
  call void @llvm.lifetime.end.p0(i64 8, ptr %8) #10
  br label %23

23:                                               ; preds = %22, %12
  call void @llvm.lifetime.end.p0(i64 8, ptr %6) #10
  %24 = load ptr, ptr %3, align 8
  ret ptr %24
}