; Function Attrs: nounwind uwtable
define internal ptr @restore_crossinterp_data(ptr readnone captures(none) %0, ptr noundef %1) #0 {
  %3 = alloca ptr, align 8
  call void @llvm.lifetime.start.p0(i64 8, ptr nonnull %3) #11
  store ptr null, ptr %3, align 8, !tbaa !9
  %4 = call i32 (ptr, ptr, ...) @PyArg_ParseTuple(ptr noundef %1, ptr noundef nonnull @.str.258, ptr noundef nonnull %3) #11
  %.not = icmp eq i32 %4, 0
  br i1 %.not, label %11, label %5

5:                                                ; preds = %2
  %6 = load ptr, ptr %3, align 8, !tbaa !9
  %7 = call ptr @PyCapsule_GetPointer(ptr noundef %6, ptr noundef null) #11
  %8 = icmp eq ptr %7, null
  br i1 %8, label %11, label %9

9:                                                ; preds = %5
  %10 = call ptr @_PyXIData_NewObject(ptr noundef nonnull %7) #11
  br label %11

11:                                               ; preds = %9, %5, %2
  %.0 = phi ptr [ null, %2 ], [ %10, %9 ], [ null, %5 ]
  call void @llvm.lifetime.end.p0(i64 8, ptr nonnull %3) #11
  ret ptr %.0
}